target datalayout = "e-m:e-p270:32:32-p271:32:32-p272:64:64-i64:64-i128:128-f80:128-n8:16:32:64-S128"
target triple = "x86_64-pc-linux-gnu"

%struct.aofManifest = type { ptr, ptr, ptr, i64, i64, i32 }

; Function Attrs: nounwind uwtable
define dso_local i32 @persistAofManifest(ptr noundef %0) #0 {
  %2 = alloca i32, align 4
  %3 = alloca ptr, align 8
  %4 = alloca ptr, align 8
  %5 = alloca i32, align 4
  store ptr %0, ptr %3, align 8, !tbaa !5
  %6 = load ptr, ptr %3, align 8, !tbaa !5
  %7 = getelementptr inbounds nuw %struct.aofManifest, ptr %6, i32 0, i32 5
  %8 = load i32, ptr %7, align 8, !tbaa !75
  %9 = icmp eq i32 %8, 0
  br i1 %9, label %10, label %11

10:                                               ; preds = %1
  store i32 0, ptr %2, align 4
  br label %24

11:                                               ; preds = %1
  call void @llvm.lifetime.start.p0(i64 8, ptr %4) #12
  %12 = load ptr, ptr %3, align 8, !tbaa !5
  %13 = call ptr @getAofManifestAsString(ptr noundef %12)
  store ptr %13, ptr %4, align 8, !tbaa !18
  call void @llvm.lifetime.start.p0(i64 4, ptr %5) #12
  %14 = load ptr, ptr %4, align 8, !tbaa !18
  %15 = call i32 @writeAofManifestFile(ptr noundef %14)
  store i32 %15, ptr %5, align 4, !tbaa !22
  %16 = load ptr, ptr %4, align 8, !tbaa !18
  call void @sdsfree(ptr noundef %16)
  %17 = load i32, ptr %5, align 4, !tbaa !22
  %18 = icmp eq i32 %17, 0
  br i1 %18, label %19, label %22

19:                                               ; preds = %11
  %20 = load ptr, ptr %3, align 8, !tbaa !5
  %21 = getelementptr inbounds nuw %struct.aofManifest, ptr %20, i32 0, i32 5
  store i32 0, ptr %21, align 8, !tbaa !75
  br label %22

22:                                               ; preds = %19, %11
  %23 = load i32, ptr %5, align 4, !tbaa !22
  store i32 %23, ptr %2, align 4
  call void @llvm.lifetime.end.p0(i64 4, ptr %5) #12
  call void @llvm.lifetime.end.p0(i64 8, ptr %4) #12
  br label %24

24:                                               ; preds = %22, %10
  %25 = load i32, ptr %2, align 4
  ret i32 %25
}