; Function Attrs: nounwind uwtable
define dso_local range(i32 -1, 1) i32 @persistAofManifest(ptr noundef captures(address_is_null) %0) local_unnamed_addr #0 {
  %2 = getelementptr inbounds nuw i8, ptr %0, i64 40
  %3 = load i32, ptr %2, align 8, !tbaa !70
  %4 = icmp eq i32 %3, 0
  br i1 %4, label %10, label %5

5:                                                ; preds = %1
  %6 = tail call ptr @getAofManifestAsString(ptr noundef nonnull %0)
  %7 = tail call i32 @writeAofManifestFile(ptr noundef %6)
  tail call void @sdsfree(ptr noundef %6) #20
  %8 = icmp eq i32 %7, 0
  br i1 %8, label %9, label %10

9:                                                ; preds = %5
  store i32 0, ptr %2, align 8, !tbaa !70
  br label %10

10:                                               ; preds = %5, %9, %1
  %.0 = phi i32 [ 0, %1 ], [ 0, %9 ], [ -1, %5 ]
  ret i32 %.0
}